target datalayout = "e-m:e-p270:32:32-p271:32:32-p272:64:64-i64:64-i128:128-f80:128-n8:16:32:64-S128"
target triple = "x86_64-pc-linux-gnu"

%struct.JSON_Generator_StateStruct = type { i64, i64, i64, i64, i64, i64, i64, i64, i64, i8, i8, i8, i8 }

; Function Attrs: nounwind sspstrong uwtable
define internal void @State_mark(ptr noundef %0) #0 {
  %2 = alloca ptr, align 8
  %3 = alloca ptr, align 8
  store ptr %0, ptr %2, align 8, !tbaa !48
  call void @llvm.lifetime.start.p0(i64 8, ptr %3) #27
  %4 = load ptr, ptr %2, align 8, !tbaa !48
  store ptr %4, ptr %3, align 8, !tbaa !12
  %5 = load ptr, ptr %3, align 8, !tbaa !12
  %6 = getelementptr inbounds nuw %struct.JSON_Generator_StateStruct, ptr %5, i32 0, i32 0
  %7 = load i64, ptr %6, align 8, !tbaa !17
  call void @rb_gc_mark_movable(i64 noundef %7)
  %8 = load ptr, ptr %3, align 8, !tbaa !12
  %9 = getelementptr inbounds nuw %struct.JSON_Generator_StateStruct, ptr %8, i32 0, i32 1
  %10 = load i64, ptr %9, align 8, !tbaa !20
  call void @rb_gc_mark_movable(i64 noundef %10)
  %11 = load ptr, ptr %3, align 8, !tbaa !12
  %12 = getelementptr inbounds nuw %struct.JSON_Generator_StateStruct, ptr %11, i32 0, i32 2
  %13 = load i64, ptr %12, align 8, !tbaa !21
  call void @rb_gc_mark_movable(i64 noundef %13)
  %14 = load ptr, ptr %3, align 8, !tbaa !12
  %15 = getelementptr inbounds nuw %struct.JSON_Generator_StateStruct, ptr %14, i32 0, i32 3
  %16 = load i64, ptr %15, align 8, !tbaa !22
  call void @rb_gc_mark_movable(i64 noundef %16)
  %17 = load ptr, ptr %3, align 8, !tbaa !12
  %18 = getelementptr inbounds nuw %struct.JSON_Generator_StateStruct, ptr %17, i32 0, i32 4
  %19 = load i64, ptr %18, align 8, !tbaa !23
  call void @rb_gc_mark_movable(i64 noundef %19)
  %20 = load ptr, ptr %3, align 8, !tbaa !12
  %21 = getelementptr inbounds nuw %struct.JSON_Generator_StateStruct, ptr %20, i32 0, i32 5
  %22 = load i64, ptr %21, align 8, !tbaa !24
  call void @rb_gc_mark_movable(i64 noundef %22)
  call void @llvm.lifetime.end.p0(i64 8, ptr %3) #27
  ret void
}