; Function Attrs: nounwind sspstrong uwtable
define internal void @State_mark(ptr noundef readonly captures(none) %0) #0 {
  %2 = load i64, ptr %0, align 8, !tbaa !25
  tail call void @rb_gc_mark_movable(i64 noundef %2) #22
  %3 = getelementptr inbounds nuw i8, ptr %0, i64 8
  %4 = load i64, ptr %3, align 8, !tbaa !26
  tail call void @rb_gc_mark_movable(i64 noundef %4) #22
  %5 = getelementptr inbounds nuw i8, ptr %0, i64 16
  %6 = load i64, ptr %5, align 8, !tbaa !27
  tail call void @rb_gc_mark_movable(i64 noundef %6) #22
  %7 = getelementptr inbounds nuw i8, ptr %0, i64 24
  %8 = load i64, ptr %7, align 8, !tbaa !28
  tail call void @rb_gc_mark_movable(i64 noundef %8) #22
  %9 = getelementptr inbounds nuw i8, ptr %0, i64 32
  %10 = load i64, ptr %9, align 8, !tbaa !29
  tail call void @rb_gc_mark_movable(i64 noundef %10) #22
  %11 = getelementptr inbounds nuw i8, ptr %0, i64 40
  %12 = load i64, ptr %11, align 8, !tbaa !30
  tail call void @rb_gc_mark_movable(i64 noundef %12) #22
  ret void
}